target datalayout = "e-m:e-p270:32:32-p271:32:32-p272:64:64-i64:64-i128:128-f80:128-n8:16:32:64-S128"
target triple = "x86_64-unknown-linux-gnu"

%"class.rocksdb::lru_cache::LRUHandleTable" = type { i32, %"class.std::unique_ptr", i32, i32, ptr }
%"class.std::unique_ptr" = type { %"struct.std::__uniq_ptr_data" }
%"struct.std::__uniq_ptr_data" = type { %"class.std::__uniq_ptr_impl" }
%"class.std::__uniq_ptr_impl" = type { %"class.std::tuple" }
%"class.std::tuple" = type { %"struct.std::_Tuple_impl" }
%"struct.std::_Tuple_impl" = type { %"struct.std::_Head_base.1" }
%"struct.std::_Head_base.1" = type { ptr }
%"struct.rocksdb::lru_cache::LRUHandle" = type { ptr, ptr, ptr, ptr, ptr, i64, i64, i32, i32, i8, i8, [1 x i8] }
%"class.rocksdb::lru_cache::LRUCacheShard" = type { %"class.rocksdb::CacheShardBase", i64, i64, i64, i8, double, double, double, double, %"struct.rocksdb::lru_cache::LRUHandle", ptr, ptr, %"class.rocksdb::lru_cache::LRUHandleTable", i64, i64, %"class.rocksdb::port::Mutex", ptr }
%"class.rocksdb::CacheShardBase" = type { i32 }
%"class.rocksdb::port::Mutex" = type { %union.pthread_mutex_t }
%union.pthread_mutex_t = type { %struct.__pthread_mutex_s }
%struct.__pthread_mutex_s = type { i32, i32, i32, i32, i32, i16, i16, %struct.__pthread_internal_list }
%struct.__pthread_internal_list = type { ptr, ptr }
%"class.std::lock_guard" = type { ptr }

; Function Attrs: mustprogress uwtable
define linkonce_odr void @_ZN7rocksdb4port5Mutex6unlockEv(ptr noundef nonnull align 8 dereferenceable(40) %this) #0 comdat align 2 {
entry:
  %this.addr = alloca ptr, align 8
  store ptr %this, ptr %this.addr, align 8
  %this1 = load ptr, ptr %this.addr, align 8
  call void @_ZN7rocksdb4port5Mutex6UnlockEv(ptr noundef nonnull align 8 dereferenceable(40) %this1)
  ret void
}

; Function Attrs: mustprogress uwtable
define linkonce_odr void @_ZN7rocksdb4port5Mutex4lockEv(ptr noundef nonnull align 8 dereferenceable(40) %this) #0 comdat align 2 {
entry:
  %this.addr = alloca ptr, align 8
  store ptr %this, ptr %this.addr, align 8
  %this1 = load ptr, ptr %this.addr, align 8
  call void @_ZN7rocksdb4port5Mutex4LockEv(ptr noundef nonnull align 8 dereferenceable(40) %this1)
  ret void
}

; Function Attrs: mustprogress nounwind uwtable
define linkonce_odr void @_ZNSt10lock_guardIN7rocksdb4port5MutexEED2Ev(ptr noundef nonnull align 8 dereferenceable(8) %this) unnamed_addr #4 comdat align 2 personality ptr @__gxx_personality_v0 {
entry:
  %this.addr = alloca ptr, align 8
  store ptr %this, ptr %this.addr, align 8
  %this1 = load ptr, ptr %this.addr, align 8
  %_M_device = getelementptr inbounds %"class.std::lock_guard", ptr %this1, i32 0, i32 0
  %0 = load ptr, ptr %_M_device, align 8
  invoke void @_ZN7rocksdb4port5Mutex6unlockEv(ptr noundef nonnull align 8 dereferenceable(40) %0)
          to label %invoke.cont unwind label %terminate.lpad

invoke.cont:                                      ; preds = %entry
  ret void

terminate.lpad:                                   ; preds = %entry
  %1 = landingpad { ptr, i32 }
          catch ptr null
  %2 = extractvalue { ptr, i32 } %1, 0
  call void @__clang_call_terminate(ptr %2) #16
  unreachable
}

; Function Attrs: mustprogress uwtable
define linkonce_odr void @_ZNSt10lock_guardIN7rocksdb4port5MutexEEC2ERS2_(ptr noundef nonnull align 8 dereferenceable(8) %this, ptr noundef nonnull align 8 dereferenceable(40) %__m) unnamed_addr #0 comdat align 2 {
entry:
  %this.addr = alloca ptr, align 8
  %__m.addr = alloca ptr, align 8
  store ptr %this, ptr %this.addr, align 8
  store ptr %__m, ptr %__m.addr, align 8
  %this1 = load ptr, ptr %this.addr, align 8
  %_M_device = getelementptr inbounds %"class.std::lock_guard", ptr %this1, i32 0, i32 0
  %0 = load ptr, ptr %__m.addr, align 8
  store ptr %0, ptr %_M_device, align 8
  %_M_device2 = getelementptr inbounds %"class.std::lock_guard", ptr %this1, i32 0, i32 0
  %1 = load ptr, ptr %_M_device2, align 8
  call void @_ZN7rocksdb4port5Mutex4lockEv(ptr noundef nonnull align 8 dereferenceable(40) %1)
  ret void
}

; Function Attrs: mustprogress uwtable
define noundef i64 @_ZNK7rocksdb9lru_cache13LRUCacheShard8GetUsageEv(ptr noundef nonnull align 64 dereferenceable(256) %this) #0 align 2 {
entry:
  %this.addr = alloca ptr, align 8
  %l = alloca %"class.std::lock_guard", align 8
  store ptr %this, ptr %this.addr, align 8
  %this1 = load ptr, ptr %this.addr, align 8
  %mutex_ = getelementptr inbounds %"class.rocksdb::lru_cache::LRUCacheShard", ptr %this1, i32 0, i32 15
  call void @_ZNSt10lock_guardIN7rocksdb4port5MutexEEC2ERS2_(ptr noundef nonnull align 8 dereferenceable(8) %l, ptr noundef nonnull align 8 dereferenceable(40) %mutex_)
  %usage_ = getelementptr inbounds %"class.rocksdb::lru_cache::LRUCacheShard", ptr %this1, i32 0, i32 13
  %0 = load i64, ptr %usage_, align 64
  call void @_ZNSt10lock_guardIN7rocksdb4port5MutexEED2Ev(ptr noundef nonnull align 8 dereferenceable(8) %l) #15
  ret i64 %0
}